; Function Attrs: nounwind uwtable
define void @lv_obj_set_layout(ptr noundef %0, i32 noundef %1) local_unnamed_addr #0 {
  %3 = trunc i32 %1 to i16
  tail call void @lv_obj_set_style_layout(ptr noundef %0, i16 noundef zeroext %3, i32 noundef 0) #8
  %4 = getelementptr inbounds nuw i8, ptr %0, i64 62
  %5 = load i16, ptr %4, align 2
  %6 = or i16 %5, 1
  store i16 %6, ptr %4, align 2
  %7 = tail call ptr @lv_obj_get_screen(ptr noundef %0) #8
  %8 = getelementptr inbounds nuw i8, ptr %7, i64 62
  %9 = load i16, ptr %8, align 2
  %10 = or i16 %9, 4
  store i16 %10, ptr %8, align 2
  %11 = tail call ptr @lv_obj_get_display(ptr noundef %7) #8
  %12 = tail call i32 @lv_display_send_event(ptr noundef %11, i32 noundef 56, ptr noundef null) #8
  ret void
}